target datalayout = "e-m:e-p270:32:32-p271:32:32-p272:64:64-i64:64-i128:128-f80:128-n8:16:32:64-S128"
target triple = "x86_64-pc-linux-gnu"

%struct.expert_field = type { i32, i32 }

@ei_reload_truncated_field = internal global %struct.expert_field zeroinitializer, align 4
@hf_reload_length_uint32 = internal global i32 0, align 4
@.str.17 = private unnamed_addr constant [14 x i8] c": %d elements\00", align 1
@hf_reload_statans = internal global i32 0, align 4
@ett_reload_statans = internal global i32 0, align 4
@.str.722 = private unnamed_addr constant [18 x i8] c"Truncated StatAns\00", align 1
@.str.723 = private unnamed_addr constant [24 x i8] c" (StatKindResponse<%d>)\00", align 1

; Function Attrs: null_pointer_is_valid sspstrong uwtable
define internal i32 @dissect_statans(ptr noundef %0, ptr noundef %1, ptr noundef %2, i16 noundef zeroext %3, i16 noundef zeroext %4) #0 {
  %6 = alloca i32, align 4
  %7 = alloca ptr, align 8
  %8 = alloca ptr, align 8
  %9 = alloca ptr, align 8
  %10 = alloca i16, align 2
  %11 = alloca i16, align 2
  %12 = alloca ptr, align 8
  %13 = alloca ptr, align 8
  %14 = alloca i32, align 4
  %15 = alloca i32, align 4
  %16 = alloca i32, align 4
  %17 = alloca i32, align 4
  %18 = alloca i32, align 4
  store ptr %0, ptr %7, align 8
  store ptr %1, ptr %8, align 8
  store ptr %2, ptr %9, align 8
  store i16 %3, ptr %10, align 2
  store i16 %4, ptr %11, align 2
  call void @llvm.lifetime.start.p0(i64 8, ptr %12) #8
  call void @llvm.lifetime.start.p0(i64 8, ptr %13) #8
  call void @llvm.lifetime.start.p0(i64 4, ptr %14) #8
  call void @llvm.lifetime.start.p0(i64 4, ptr %15) #8
  store i32 0, ptr %15, align 4
  call void @llvm.lifetime.start.p0(i64 4, ptr %16) #8
  store i32 0, ptr %16, align 4
  %19 = load ptr, ptr %7, align 8
  %20 = load i16, ptr %10, align 2
  %21 = zext i16 %20 to i32
  %22 = call i32 @tvb_get_ntohl(ptr noundef %19, i32 noundef %21)
  store i32 %22, ptr %14, align 4
  %23 = load i32, ptr %14, align 4
  %24 = icmp ugt i32 %23, 65535
  br i1 %24, label %31, label %25

25:                                               ; preds = %5
  %26 = load i32, ptr %14, align 4
  %27 = add i32 4, %26
  %28 = load i16, ptr %11, align 2
  %29 = zext i16 %28 to i32
  %30 = icmp ugt i32 %27, %29
  br i1 %30, label %31, label %45

31:                                               ; preds = %25, %5
  %32 = load ptr, ptr %9, align 8
  %33 = load i32, ptr @hf_reload_statans, align 4
  %34 = load ptr, ptr %7, align 8
  %35 = load i16, ptr %10, align 2
  %36 = zext i16 %35 to i32
  %37 = load i16, ptr %11, align 2
  %38 = zext i16 %37 to i32
  %39 = call ptr @proto_tree_add_item(ptr noundef %32, i32 noundef %33, ptr noundef %34, i32 noundef %36, i32 noundef %38, i32 noundef 0)
  store ptr %39, ptr %12, align 8
  %40 = load ptr, ptr %8, align 8
  %41 = load ptr, ptr %12, align 8
  %42 = call ptr (ptr, ptr, ptr, ptr, ...) @expert_add_info_format(ptr noundef %40, ptr noundef %41, ptr noundef @ei_reload_truncated_field, ptr noundef @.str.722)
  %43 = load i16, ptr %11, align 2
  %44 = zext i16 %43 to i32
  store i32 %44, ptr %6, align 4
  store i32 1, ptr %17, align 4
  br label %102

45:                                               ; preds = %25
  %46 = load ptr, ptr %9, align 8
  %47 = load i32, ptr @hf_reload_statans, align 4
  %48 = load ptr, ptr %7, align 8
  %49 = load i16, ptr %10, align 2
  %50 = zext i16 %49 to i32
  %51 = load i32, ptr %14, align 4
  %52 = add i32 4, %51
  %53 = call ptr @proto_tree_add_item(ptr noundef %46, i32 noundef %47, ptr noundef %48, i32 noundef %50, i32 noundef %52, i32 noundef 0)
  store ptr %53, ptr %12, align 8
  %54 = load ptr, ptr %12, align 8
  %55 = load i32, ptr %14, align 4
  call void (ptr, ptr, ...) @proto_item_append_text(ptr noundef %54, ptr noundef @.str.723, i32 noundef %55)
  %56 = load ptr, ptr %12, align 8
  %57 = load i32, ptr @ett_reload_statans, align 4
  %58 = call ptr @proto_item_add_subtree(ptr noundef %56, i32 noundef %57)
  store ptr %58, ptr %13, align 8
  %59 = load ptr, ptr %13, align 8
  %60 = load i32, ptr @hf_reload_length_uint32, align 4
  %61 = load ptr, ptr %7, align 8
  %62 = load i16, ptr %10, align 2
  %63 = zext i16 %62 to i32
  %64 = load i32, ptr %14, align 4
  %65 = call ptr @proto_tree_add_uint(ptr noundef %59, i32 noundef %60, ptr noundef %61, i32 noundef %63, i32 noundef 4, i32 noundef %64)
  br label %66

66:                                               ; preds = %96, %45
  %67 = load i32, ptr %15, align 4
  %68 = load i32, ptr %14, align 4
  %69 = icmp ult i32 %67, %68
  br i1 %69, label %70, label %97

70:                                               ; preds = %66
  call void @llvm.lifetime.start.p0(i64 4, ptr %18) #8
  %71 = load ptr, ptr %7, align 8
  %72 = load ptr, ptr %8, align 8
  %73 = load ptr, ptr %13, align 8
  %74 = load i16, ptr %10, align 2
  %75 = zext i16 %74 to i32
  %76 = add i32 %75, 4
  %77 = load i32, ptr %15, align 4
  %78 = add i32 %76, %77
  %79 = trunc i32 %78 to i16
  %80 = load i32, ptr %14, align 4
  %81 = load i32, ptr %15, align 4
  %82 = sub i32 %80, %81
  %83 = trunc i32 %82 to i16
  %84 = call i32 @dissect_kinddata(ptr noundef %71, ptr noundef %72, ptr noundef %73, i16 noundef zeroext %79, i16 noundef zeroext %83, i1 noundef zeroext true)
  store i32 %84, ptr %18, align 4
  %85 = load i32, ptr %18, align 4
  %86 = icmp eq i32 %85, 0
  br i1 %86, label %87, label %88

87:                                               ; preds = %70
  store i32 3, ptr %17, align 4
  br label %94

88:                                               ; preds = %70
  %89 = load i32, ptr %16, align 4
  %90 = add i32 %89, 1
  store i32 %90, ptr %16, align 4
  %91 = load i32, ptr %18, align 4
  %92 = load i32, ptr %15, align 4
  %93 = add i32 %92, %91
  store i32 %93, ptr %15, align 4
  store i32 0, ptr %17, align 4
  br label %94

94:                                               ; preds = %88, %87
  call void @llvm.lifetime.end.p0(i64 4, ptr %18) #8
  %95 = load i32, ptr %17, align 4
  switch i32 %95, label %104 [
    i32 0, label %96
    i32 3, label %97
  ]

96:                                               ; preds = %94
  br label %66, !llvm.loop !19

97:                                               ; preds = %94, %66
  %98 = load ptr, ptr %12, align 8
  %99 = load i32, ptr %16, align 4
  call void (ptr, ptr, ...) @proto_item_append_text(ptr noundef %98, ptr noundef @.str.17, i32 noundef %99)
  %100 = load i32, ptr %14, align 4
  %101 = add i32 4, %100
  store i32 %101, ptr %6, align 4
  store i32 1, ptr %17, align 4
  br label %102

102:                                              ; preds = %97, %31
  call void @llvm.lifetime.end.p0(i64 4, ptr %16) #8
  call void @llvm.lifetime.end.p0(i64 4, ptr %15) #8
  call void @llvm.lifetime.end.p0(i64 4, ptr %14) #8
  call void @llvm.lifetime.end.p0(i64 8, ptr %13) #8
  call void @llvm.lifetime.end.p0(i64 8, ptr %12) #8
  %103 = load i32, ptr %6, align 4
  ret i32 %103

104:                                              ; preds = %94
  unreachable
}