; Function Attrs: null_pointer_is_valid sspstrong uwtable
define internal fastcc void @dissect_statans(ptr noundef %0, ptr noundef %1, ptr noundef %2, i16 noundef zeroext %3, i16 noundef zeroext %4) unnamed_addr #0 {
  %6 = zext i16 %3 to i32
  %7 = tail call i32 @tvb_get_ntohl(ptr noundef %0, i32 noundef %6)
  %8 = icmp ugt i32 %7, 65535
  br i1 %8, label %._crit_edge, label %9

._crit_edge:                                      ; preds = %5
  %.pre = zext i16 %4 to i32
  br label %13

9:                                                ; preds = %5
  %10 = add nuw nsw i32 %7, 4
  %11 = zext i16 %4 to i32
  %12 = icmp samesign ugt i32 %10, %11
  br i1 %12, label %13, label %17

13:                                               ; preds = %._crit_edge, %9
  %.pre-phi = phi i32 [ %.pre, %._crit_edge ], [ %11, %9 ]
  %14 = load i32, ptr @hf_reload_statans, align 4
  %15 = tail call ptr @proto_tree_add_item(ptr noundef %2, i32 noundef %14, ptr noundef %0, i32 noundef %6, i32 noundef %.pre-phi, i32 noundef 0)
  %16 = tail call ptr (ptr, ptr, ptr, ptr, ...) @expert_add_info_format(ptr noundef %1, ptr noundef %15, ptr noundef nonnull @ei_reload_truncated_field, ptr noundef nonnull @.str.722)
  br label %37

17:                                               ; preds = %9
  %18 = load i32, ptr @hf_reload_statans, align 4
  %19 = tail call ptr @proto_tree_add_item(ptr noundef %2, i32 noundef %18, ptr noundef %0, i32 noundef %6, i32 noundef %10, i32 noundef 0)
  tail call void (ptr, ptr, ...) @proto_item_append_text(ptr noundef %19, ptr noundef nonnull @.str.723, i32 noundef %7)
  %20 = load i32, ptr @ett_reload_statans, align 4
  %21 = tail call ptr @proto_item_add_subtree(ptr noundef %19, i32 noundef %20)
  %22 = load i32, ptr @hf_reload_length_uint32, align 4
  %23 = tail call ptr @proto_tree_add_uint(ptr noundef %21, i32 noundef %22, ptr noundef %0, i32 noundef %6, i32 noundef 4, i32 noundef %7)
  %24 = add nuw nsw i32 %6, 4
  br label %25

25:                                               ; preds = %27, %17
  %.042 = phi i32 [ 0, %17 ], [ %35, %27 ]
  %.041 = phi i32 [ 0, %17 ], [ %34, %27 ]
  %26 = icmp ult i32 %.042, %7
  br i1 %26, label %27, label %36

27:                                               ; preds = %25
  %28 = add nuw nsw i32 %24, %.042
  %29 = trunc i32 %28 to i16
  %30 = sub nuw nsw i32 %7, %.042
  %31 = trunc nuw i32 %30 to i16
  %32 = tail call fastcc i32 @dissect_kinddata(ptr noundef %0, ptr noundef %1, ptr noundef %21, i16 noundef zeroext %29, i16 noundef zeroext %31, i1 noundef zeroext true)
  %33 = icmp eq i32 %32, 0
  %34 = add i32 %.041, 1
  %35 = add i32 %32, %.042
  br i1 %33, label %36, label %25

36:                                               ; preds = %27, %25
  tail call void (ptr, ptr, ...) @proto_item_append_text(ptr noundef %19, ptr noundef nonnull @.str.17, i32 noundef %.041)
  br label %37

37:                                               ; preds = %36, %13
  ret void
}